#include <math.h>
#include <stdio.h>
#include <stdlib.h>
#include <string.h>
#include <iostream>
using namespace std;

int main()
{
	int m,n,a[10000],i=0;
	cin>>n>>m;
	for(i=0;i<n;i++)
	{
		cin>>a[i];
	}
	i=n-m;
	for(i=n-m;i<n;i++)
	{
			cout<<a[i]<<" ";
	}
	i=0;
	for(i=0;i<n-m-1;i++)
	{
		cout<<a[i]<<" ";
	}
	if(i=n-m-1)
		cout<<a[i];
	return 0;
}
